(dp1
S'sg_version_data'
p2
(dp3
S'code'
p4
S'v0.2.2'
p5
sS'description'
p6
S'Updated brand icons.'
p7
sS'tags'
p8
(lp9
sS'sg_payload'
p10
(dp11
S'name'
p12
S'tk-framework-lmv_v0.2.2.zip'
p13
sS'url'
p14
S'https://s3-proxy.shotgunstudio.com/d18c13bf0e59a9a82f18be518a1b6b508bcbd774/d18e09fcd9b838956396fea30d13d48c2c71477b/tk-framework-lmv_v0.2.2.zip?response-content-disposition=filename%3D%22tk-framework-lmv_v0.2.2.zip%22&x-amz-meta-user-id=42&x-amz-meta-user-type=ApiUser&X-Amz-Algorithm=AWS4-HMAC-SHA256&X-Amz-Credential=ASIAYJG6Z4JIS3KLW4MO%2F20230516%2Fus-west-2%2Fs3%2Faws4_request&X-Amz-Date=20230516T095139Z&X-Amz-SignedHeaders=host&X-Amz-Expires=900&X-Amz-Security-Token=IQoJb3JpZ2luX2VjEAIaCXVzLWVhc3QtMSJGMEQCIEIQWtVgTTeg9GWv%2BwDwG5fdW7cQiFGpv06T09cfOBBmAiA2NP5cuKmWSk3r8wFbEbmli988y5WDIZ%2BnPJ6A1vGBZCqYAggrEAAaDDU2OTU1MDQzMDgwMSIM%2BUl4Ls2gCFCFOC8BKvUB6FSZtibVGNP%2FCMYB78yLetqID8mDSk3pbufW66nXQCXsd%2BjVk74ioHnOAk9JXZClV4KgMDAZhjqRtJSAPchutXJ%2BheB%2B%2BGpSGYzsefdbxQpe36QL%2Bvukj%2ByGMzwqGSvoiNMeuHToxHeoFfZpaOnlFwJzoPpuP1UG95nv1Jek9Z4clhI2cUbTAJuq6yn%2BYej8lZNUJ5I%2BVIMDBJPYsRUv7n%2BMaY5yx%2Fu%2BomLRmMuG8zIj1kv727dLUmGBtCh%2FZ7sNNrwTE046ZxJP8eT3TA9qvdNBYh%2F4U1jXO3cZEWBTNw1mtXRvYo2iC%2B%2FWKZ1FFOTtsWkpy24w55aNowY6ngFtQUK9D9l25beefhRcfmCfUVMgJ9YUlej7ObhduiRkMMdWvx6veJJtDyMWXsdy0OBfNysiabKzieMrXi7yYrZes06KTkjRMYDaDas1M1eLf%2F7aqBDDifRjYvRmSlI061IoU044%2B51u0AnN4AB1u1uihHMwzQ6ssc9JqC911BTENG5d94pUpo757MTMVd8VgtFtG8%2BzgMEk8FDRmJxy%2BA%3D%3D&X-Amz-Signature=96366ca21173fe71b74592974b2147ef4ca9cc12a3c3352c0bbc6a42c2aa677d'
p15
sS'content_type'
p16
S'application/zip'
p17
sS'type'
p18
S'Attachment'
p19
sS'id'
p20
I27822
sS'link_type'
p21
S'upload'
p22
ssS'sg_status_list'
p23
S'prod'
p24
sS'sg_detailed_release_notes'
p25
(dp26
S'name'
p27
S'v0.2.2'
p28
sS'url'
p29
S'https://community.shotgridsoftware.com/t/a-new-version-of-tk-framework-lmv-has-been-released/14121/4'
p30
sS'content_type'
p31
NsS'type'
p32
S'Attachment'
p33
sS'id'
p34
I27883
sS'link_type'
p35
S'web'
p36
ssS'sg_documentation'
p37
NsS'type'
p38
S'CustomNonProjectEntity09'
p39
sS'id'
p40
I2302
ssS'sg_bundle_data'
p41
(dp42
S'sg_status_list'
p43
S'depl'
p44
sS'type'
p45
S'CustomNonProjectEntity13'
p46
sS'id'
p47
I117
sS'sg_system_name'
p48
S'tk-framework-lmv'
p49
sS'sg_deprecation_message'
p50
Nss.