(dp1
S'sg_version_data'
p2
(dp3
S'code'
p4
S'v1.17.7'
p5
sS'description'
p6
S'Fix error closing QT windows'
p7
sS'tags'
p8
(lp9
sS'sg_payload'
p10
(dp11
S'name'
p12
S'tk-flame_v1.17.7.zip'
p13
sS'url'
p14
S'https://s3-proxy.shotgunstudio.com/d18c13bf0e59a9a82f18be518a1b6b508bcbd774/7b16b3f420c588404df50ec86b00db02a4cc2b5a/tk-flame_v1.17.7.zip?response-content-disposition=filename%3D%22tk-flame_v1.17.7.zip%22&x-amz-meta-user-id=42&x-amz-meta-user-type=ApiUser&X-Amz-Algorithm=AWS4-HMAC-SHA256&X-Amz-Credential=ASIAYJG6Z4JIYVLGHAMU%2F20230516%2Fus-west-2%2Fs3%2Faws4_request&X-Amz-Date=20230516T095444Z&X-Amz-SignedHeaders=host&X-Amz-Expires=900&X-Amz-Security-Token=IQoJb3JpZ2luX2VjEAIaCXVzLWVhc3QtMSJIMEYCIQD1Xr40VW1b7XpGoXt3saBbzqNxgU19oddjjnzzKKucTgIhALYMDNLOIz1bxHQQmAlktkUtUDSUWXYWTbpiigstBChZKpgCCCsQABoMNTY5NTUwNDMwODAxIgworBtzzIjCjWjRC8Qq9QER3vkBO8wMPSFxy7ujWt%2BxxMNfpWNfYLDgGW0GFENz3cpGKwTdnwpV9bnuDI3AkH6ffBZzihDAEq8DrFx2f02avxGnlXT4d14hyXo1X0jwQlIeNSAds8yoWC%2Br%2FWCrTzak2%2BWJmt3zrhG8IDcG82rM3cjd669wVrIXUc14g7hyw4UFVEbrb3W%2Fb8P78lC3ZI8SZmEKKE0eIK2hjRn2t1WyXFK8%2FEh1Krf4FNx5l7iRbOUYk02zuNlHr%2FShL0gj6vXQICX5ddWUARbQ33PycaMuDtjjokS%2BfwZ8nrrmUFNzB0TiN3suD0e8Hgj%2BuQ6AMramsObzeTCSl42jBjqcAepaTdI88Alcqswc%2FO2oTXN9q%2FB1T4HdpjL7MSsAQ8JaQ4qFGg7IRqP%2Fp%2Frv0Fz3r08y0H1W9X3wjuX2RZ2aF1UHf4mr5TyICX55tKnaaX1JanjzmxnJxild8MYinA5GXLLTgQoYZXg%2FaX2pbu3gptDDL1yZXVfmnxjczn1GHb2dqHpUZWYqbNdG9ndDOPd3EngkUsA4ShCz%2BQjulg%3D%3D&X-Amz-Signature=4a1fd59ae5d856914e99ab300175d647f5605e443aa7be78d75306cb76a82ffe'
p15
sS'content_type'
p16
S'application/zip'
p17
sS'type'
p18
S'Attachment'
p19
sS'id'
p20
I28780
sS'link_type'
p21
S'upload'
p22
ssS'sg_status_list'
p23
S'prod'
p24
sS'sg_detailed_release_notes'
p25
NsS'sg_documentation'
p26
(dp27
S'name'
p28
S'Documentation'
p29
sS'url'
p30
S'https://developer.shotgridsoftware.com/219041158'
p31
sS'content_type'
p32
NsS'type'
p33
S'Attachment'
p34
sS'id'
p35
I28779
sS'link_type'
p36
S'web'
p37
ssS'type'
p38
S'CustomNonProjectEntity04'
p39
sS'id'
p40
I3347
ssS'sg_bundle_data'
p41
(dp42
S'sg_status_list'
p43
S'depl'
p44
sS'type'
p45
S'CustomNonProjectEntity03'
p46
sS'id'
p47
I51
sS'sg_system_name'
p48
S'tk-flame'
p49
sS'sg_deprecation_message'
p50
Nss.