(dp1
S'sg_version_data'
p2
(dp3
S'code'
p4
S'v1.5.0'
p5
sS'description'
p6
S'[No wiki release notes found]'
p7
sS'tags'
p8
(lp9
sS'sg_payload'
p10
(dp11
S'name'
p12
S'tk-config-default2_v1.5.0.zip'
p13
sS'url'
p14
S'https://s3-proxy.shotgunstudio.com/d18c13bf0e59a9a82f18be518a1b6b508bcbd774/ab097fb6f2e19a85fbb1d669aebb9519d511cf68/tk-config-default2_v1.5.0.zip?response-content-disposition=filename%3D%22tk-config-default2_v1.5.0.zip%22&x-amz-meta-user-id=42&x-amz-meta-user-type=ApiUser&X-Amz-Algorithm=AWS4-HMAC-SHA256&X-Amz-Credential=ASIAYJG6Z4JI2LSUVGXZ%2F20230517%2Fus-west-2%2Fs3%2Faws4_request&X-Amz-Date=20230517T024108Z&X-Amz-SignedHeaders=host&X-Amz-Expires=900&X-Amz-Security-Token=IQoJb3JpZ2luX2VjEBMaCXVzLWVhc3QtMSJIMEYCIQDw7vLwPzBUGibOBodaEH46ZK99JzhtVlDWeMxHXIfCSgIhAO6WSoEesqejA6gAuPi9nXIPhWUZRj9EoPCDT4Is%2Fme7KpgCCDwQABoMNTY5NTUwNDMwODAxIgz%2BdlmVgkAOzNlaqTYq9QE6TeEOV8ve%2F7mwYKBE1f4bjtZaIZxIA8H%2FbdtZyd4SrtYQ6hhzWhTStwF2jQnN74Y226Fdg6eEi8r23ihgwl72%2BNKRmG0zBUoLd%2FpuVZgJOywvy72PgTRz2sDTr7p%2BDFnRPHrJu12udoMDypvuJwmLBzMhaPIS2KmIqfqfKE750ntqemetE4I5LVFF7a%2B%2B0JyCILKRiOFVUkA1hEBGu2G1xkX9gGdqaQo5QW4hraOGzjCqTGgeR6P%2FYSqAvKPhWnNcXM%2BH8iC%2FYVQJHkO6zRUdNW6ZbmkMNLiJMSQsluKCZJ9X0WcpAMVr0P7V%2BwyNR5GXbHbChTDT%2BJCjBjqcAbPwZNVfMPTOOnCC%2FzBrGE7IH6h%2Fhj2bqv3rLtCmT3WDlT2SW8%2B5gPOHWHpuxmozhhRZeV%2BPsHm6bsM43VQmPueBMgwJYJdfu6y1OoRurprrQzVy3PBPi7b9eW8XnXJkfszIZcGbIkJ%2BjGZclLxdk%2FtBt1SNUi8GCNmDtqckrcMmBourdAzPaj%2BvRu5xdGfk%2FONL1jZLglXZZjo4rA%3D%3D&X-Amz-Signature=5f8cdf3572bfaaf5d0e4986f1291812314c802f81346ce65b38004805407cc14'
p15
sS'content_type'
p16
S'application/zip'
p17
sS'type'
p18
S'Attachment'
p19
sS'id'
p20
I29577
sS'link_type'
p21
S'upload'
p22
ssS'sg_status_list'
p23
S'prod'
p24
sS'sg_detailed_release_notes'
p25
(dp26
S'name'
p27
S'v1.5.0'
p28
sS'url'
p29
S'https://community.shotgridsoftware.com/t/shotgrid-integration-1-5-release-notes/16635'
p30
sS'content_type'
p31
NsS'type'
p32
S'Attachment'
p33
sS'id'
p34
I29578
sS'link_type'
p35
S'web'
p36
ssS'sg_documentation'
p37
NsS'type'
p38
S'CustomNonProjectEntity08'
p39
sS'id'
p40
I2688
ssS'sg_bundle_data'
p41
(dp42
S'sg_status_list'
p43
S'hidden'
p44
sS'type'
p45
S'CustomNonProjectEntity07'
p46
sS'id'
p47
I81
sS'sg_system_name'
p48
S'tk-config-default2'
p49
sS'sg_deprecation_message'
p50
Nss.