(dp1
S'sg_version_data'
p2
(dp3
S'code'
p4
S'v1.8.1'
p5
sS'description'
p6
S'Replacing shotgunsoftware urls with Autodesk Knowledge Network and ShotGrid Developer Documentation pages.'
p7
sS'tags'
p8
(lp9
sS'sg_payload'
p10
(dp11
S'name'
p12
S'tk-multi-breakdown_v1.8.1.zip'
p13
sS'url'
p14
S'https://s3-proxy.shotgunstudio.com/d18c13bf0e59a9a82f18be518a1b6b508bcbd774/4866864e7cd273abcd2d3d7973d42b3ccbd8d249/tk-multi-breakdown_v1.8.1.zip?response-content-disposition=filename%3D%22tk-multi-breakdown_v1.8.1.zip%22&x-amz-meta-user-id=42&x-amz-meta-user-type=ApiUser&X-Amz-Algorithm=AWS4-HMAC-SHA256&X-Amz-Credential=ASIAYJG6Z4JIXIXIPUWD%2F20230516%2Fus-west-2%2Fs3%2Faws4_request&X-Amz-Date=20230516T095411Z&X-Amz-SignedHeaders=host&X-Amz-Expires=900&X-Amz-Security-Token=IQoJb3JpZ2luX2VjEAIaCXVzLWVhc3QtMSJGMEQCICcseb5j%2B154upgvduGoPLD0j9zAG4PTeVxuL%2FO7h8juAiBwpZFY%2Fs8iUz7dP3tZpl%2BLsyI5SfZ9XdxButFRWpFrLiqYAggrEAAaDDU2OTU1MDQzMDgwMSIMzSAN56cmOhFuM1u2KvUBN0i0j%2B4tBQMevVhvi5yOda%2B52XruqfgWPXK2f8Djm2bp8BfiaIcYUthvcOo2vO36GtRrvyGZqzRWWvDQn%2BJbMYCG2hOrwSUNbkNOdEQnjZnikm68u4U%2BpvJ%2Bm%2FYUep3kmlY7s0AzuQVwrXYG7SVS0YBqz%2FOc8ZB7BtK6gGUM8jQPf95UC3Xo7cGtXZqLGOUNv8E2C%2FXduQOUzVjHpVEX53KXtQZbjkYeenMv6xGcSefKHiE5T3WOceKGEe6dVex3GN1GNfOhF7H5PC18WRJpQfCG6Y5E0JKnaRrLdMAFDVbtA1Hh1GoLKVEcJT3ruw%2F%2F9Ag5IX0wlZqNowY6ngHhfdJGWuCktcGqbe12kOyko0rcsCwAvI9jF%2FlpQhpH5iG80Ye0qSLfpMz%2FUo62yqBeBAGngcfbQZaeb7mCGF3e1RHmUinYuYqAJamm0TR704k%2FQedUFH9I%2BkaVUM6ccHGdvIckouJfe51VxLHGw6VuVuJ8tNF%2B2HKd7dPd3%2BjHnjq%2FYgyoc83H3LWDz89lsmxVMb3RFu%2BNU36fTZmofg%3D%3D&X-Amz-Signature=ee1bf53ea655d5f5e6fda409854ce1583f1d760cc7993869c817e155048722aa'
p15
sS'content_type'
p16
S'application/zip'
p17
sS'type'
p18
S'Attachment'
p19
sS'id'
p20
I26927
sS'link_type'
p21
S'upload'
p22
ssS'sg_status_list'
p23
S'prod'
p24
sS'sg_detailed_release_notes'
p25
(dp26
S'name'
p27
S'v1.8.1'
p28
sS'url'
p29
S'https://community.shotgridsoftware.com/t/a-new-version-of-tk-multi-breakdown-has-been-released/14135/3'
p30
sS'content_type'
p31
NsS'type'
p32
S'Attachment'
p33
sS'id'
p34
I27032
sS'link_type'
p35
S'web'
p36
ssS'sg_documentation'
p37
(dp38
S'name'
p39
S'Documentation'
p40
sS'url'
p41
S'https://developer.shotgridsoftware.com/219032988'
p42
sS'content_type'
p43
NsS'type'
p44
S'Attachment'
p45
sS'id'
p46
I26926
sS'link_type'
p47
S'web'
p48
ssS'type'
p49
S'CustomNonProjectEntity05'
p50
sS'id'
p51
I4415
ssS'sg_bundle_data'
p52
(dp53
S'sg_status_list'
p54
S'depl'
p55
sS'type'
p56
S'CustomNonProjectEntity02'
p57
sS'id'
p58
I52
sS'sg_system_name'
p59
S'tk-multi-breakdown'
p60
sS'sg_deprecation_message'
p61
Nss.