(dp1
S'sg_version_data'
p2
(dp3
S'code'
p4
S'v0.2.8'
p5
sS'description'
p6
S'Adds Python 3 support.'
p7
sS'tags'
p8
(lp9
sS'sg_payload'
p10
(dp11
S'name'
p12
S'tk-framework-widget_v0.2.8.zip'
p13
sS'url'
p14
S'https://s3-proxy.shotgunstudio.com/d18c13bf0e59a9a82f18be518a1b6b508bcbd774/5bf12ffba81768a80e4c3fb738de8f60794b139b/tk-framework-widget_v0.2.8.zip?response-content-disposition=filename%3D%22tk-framework-widget_v0.2.8.zip%22&x-amz-meta-user-id=42&x-amz-meta-user-type=ApiUser&X-Amz-Algorithm=AWS4-HMAC-SHA256&X-Amz-Credential=ASIAYJG6Z4JITLBPZ74Z%2F20230516%2Fus-west-2%2Fs3%2Faws4_request&X-Amz-Date=20230516T095156Z&X-Amz-SignedHeaders=host&X-Amz-Expires=900&X-Amz-Security-Token=IQoJb3JpZ2luX2VjEAIaCXVzLWVhc3QtMSJIMEYCIQCMQrPJccSc7amg1EJI90UPUjpBMn3x3I9XFB%2F2B5fYtQIhAOyS7FJ%2BIbvEXgJD7Kdshsfdkrx4%2Fx3pdS%2BN82RwiZ2uKpgCCCsQABoMNTY5NTUwNDMwODAxIgx7Vm9bz0G5%2FMhPyR8q9QHIc868EiKpABGlMYQDwKo6bABTqch6OwjxnfZpNSq8HZIQ574Kr8jVyXDOVFxgWctkxJg30GbiN6zYsIUW7040jwJcp9LwR1KP33oPXOV6lP24bsrjQPjU2LsYf2kIG22Wz8NGOlRRXupOf%2F2A1Anj58Oa4PsMjTh1EJJ3FWvw0lNF3XmJtToBGh%2F6G6N4usyYzT1OGYX30a4glQ4oxTclMixi2fOVwLYGQHzvFpkOf96niOnDKUPewgmzKynEiBbMi3FuX9EYlNznNFIPkq4v7nh0yWafS8zZ%2F1UFw%2FJNIDMfo%2BWOKI%2BbRU94tj4jrxXnNzP1%2FDCql42jBjqcAfbYPYzNPEfDbj4phl76BYEwfUZvfX50Ysq%2Fj1aow73%2BP%2BNM8GBBEZfqj4kK6CgeQNSnUdZw6ZrUmbMIXV8kueY2iTfQoIpchtpcJdwVJMUJo8viKEGW32ere68YIguqCH5PBGV411JTVGENVTfxJroksvzVW0dUro30X4NyetSd948wBs512jyb0sSBmCcDlN7BL%2FWKyUE5D7gSjg%3D%3D&X-Amz-Signature=b81f786777c670ed30de3502d29e2862f6ee6c80df58c62121b28875fee1552a'
p15
sS'content_type'
p16
S'application/zip'
p17
sS'type'
p18
S'Attachment'
p19
sS'id'
p20
I21722
sS'link_type'
p21
S'upload'
p22
ssS'sg_status_list'
p23
S'prod'
p24
sS'sg_detailed_release_notes'
p25
NsS'sg_documentation'
p26
NsS'type'
p27
S'CustomNonProjectEntity09'
p28
sS'id'
p29
I938
ssS'sg_bundle_data'
p30
(dp31
S'sg_status_list'
p32
S'hidden'
p33
sS'type'
p34
S'CustomNonProjectEntity13'
p35
sS'id'
p36
I1
sS'sg_system_name'
p37
S'tk-framework-widget'
p38
sS'sg_deprecation_message'
p39
Nss.