(dp1
S'sg_version_data'
p2
(dp3
S'code'
p4
S'v0.9.2'
p5
sS'description'
p6
S'ShotGrid branding updates.'
p7
sS'tags'
p8
(lp9
sS'sg_payload'
p10
(dp11
S'name'
p12
S'tk-shell_v0.9.2.zip'
p13
sS'url'
p14
S'https://s3-proxy.shotgunstudio.com/d18c13bf0e59a9a82f18be518a1b6b508bcbd774/ae27441819fd36924d48011bc3931dcea7ca93e5/tk-shell_v0.9.2.zip?response-content-disposition=filename%3D%22tk-shell_v0.9.2.zip%22&x-amz-meta-user-id=42&x-amz-meta-user-type=ApiUser&X-Amz-Algorithm=AWS4-HMAC-SHA256&X-Amz-Credential=ASIAYJG6Z4JIS3KLW4MO%2F20230516%2Fus-west-2%2Fs3%2Faws4_request&X-Amz-Date=20230516T095256Z&X-Amz-SignedHeaders=host&X-Amz-Expires=900&X-Amz-Security-Token=IQoJb3JpZ2luX2VjEAIaCXVzLWVhc3QtMSJGMEQCIEIQWtVgTTeg9GWv%2BwDwG5fdW7cQiFGpv06T09cfOBBmAiA2NP5cuKmWSk3r8wFbEbmli988y5WDIZ%2BnPJ6A1vGBZCqYAggrEAAaDDU2OTU1MDQzMDgwMSIM%2BUl4Ls2gCFCFOC8BKvUB6FSZtibVGNP%2FCMYB78yLetqID8mDSk3pbufW66nXQCXsd%2BjVk74ioHnOAk9JXZClV4KgMDAZhjqRtJSAPchutXJ%2BheB%2B%2BGpSGYzsefdbxQpe36QL%2Bvukj%2ByGMzwqGSvoiNMeuHToxHeoFfZpaOnlFwJzoPpuP1UG95nv1Jek9Z4clhI2cUbTAJuq6yn%2BYej8lZNUJ5I%2BVIMDBJPYsRUv7n%2BMaY5yx%2Fu%2BomLRmMuG8zIj1kv727dLUmGBtCh%2FZ7sNNrwTE046ZxJP8eT3TA9qvdNBYh%2F4U1jXO3cZEWBTNw1mtXRvYo2iC%2B%2FWKZ1FFOTtsWkpy24w55aNowY6ngFtQUK9D9l25beefhRcfmCfUVMgJ9YUlej7ObhduiRkMMdWvx6veJJtDyMWXsdy0OBfNysiabKzieMrXi7yYrZes06KTkjRMYDaDas1M1eLf%2F7aqBDDifRjYvRmSlI061IoU044%2B51u0AnN4AB1u1uihHMwzQ6ssc9JqC911BTENG5d94pUpo757MTMVd8VgtFtG8%2BzgMEk8FDRmJxy%2BA%3D%3D&X-Amz-Signature=e521ecc350d9692c937d824a4f72c3d6c0c6aa03bf474c92063f03516e80463f'
p15
sS'content_type'
p16
S'application/zip'
p17
sS'type'
p18
S'Attachment'
p19
sS'id'
p20
I27771
sS'link_type'
p21
S'upload'
p22
ssS'sg_status_list'
p23
S'prod'
p24
sS'sg_detailed_release_notes'
p25
(dp26
S'name'
p27
S'v0.9.2'
p28
sS'url'
p29
S'https://community.shotgridsoftware.com/t/a-new-version-of-tk-shell-has-been-released/14155/4'
p30
sS'content_type'
p31
NsS'type'
p32
S'Attachment'
p33
sS'id'
p34
I27875
sS'link_type'
p35
S'web'
p36
ssS'sg_documentation'
p37
(dp38
S'name'
p39
S'Documentation'
p40
sS'url'
p41
S'https://developer.shotgridsoftware.com/219039898'
p42
sS'content_type'
p43
NsS'type'
p44
S'Attachment'
p45
sS'id'
p46
I27770
sS'link_type'
p47
S'web'
p48
ssS'type'
p49
S'CustomNonProjectEntity04'
p50
sS'id'
p51
I3056
ssS'sg_bundle_data'
p52
(dp53
S'sg_status_list'
p54
S'depl'
p55
sS'type'
p56
S'CustomNonProjectEntity03'
p57
sS'id'
p58
I8
sS'sg_system_name'
p59
S'tk-shell'
p60
sS'sg_deprecation_message'
p61
Nss.