(dp1
S'sg_version_data'
p2
(dp3
S'code'
p4
S'v4.4.15'
p5
sS'description'
p6
S'All schema cache methods that accept entity type and field now handle bubble field notation'
p7
sS'tags'
p8
(lp9
sS'sg_payload'
p10
(dp11
S'name'
p12
S'tk-framework-shotgunutils_v4.4.15.zip'
p13
sS'url'
p14
S'https://s3-proxy.shotgunstudio.com/d18c13bf0e59a9a82f18be518a1b6b508bcbd774/499a0ea9caf57c7728609b6756639a80640649e0/tk-framework-shotgunutils_v4.4.15.zip?response-content-disposition=filename%3D%22tk-framework-shotgunutils_v4.4.15.zip%22&x-amz-meta-user-id=42&x-amz-meta-user-type=ApiUser&X-Amz-Algorithm=AWS4-HMAC-SHA256&X-Amz-Credential=ASIAYJG6Z4JI7XMNDL6Y%2F20230516%2Fus-west-2%2Fs3%2Faws4_request&X-Amz-Date=20230516T095214Z&X-Amz-SignedHeaders=host&X-Amz-Expires=900&X-Amz-Security-Token=IQoJb3JpZ2luX2VjEAIaCXVzLWVhc3QtMSJGMEQCIEwLf%2FPNRqae0jXmpo6x8HyL8qTzgJnfQD1J0Om%2FlG3%2BAiArGLFs5snOxM%2BG2gNabpxKtUn3lKIQ0Jiq%2BWFbLCZCmCqYAggrEAAaDDU2OTU1MDQzMDgwMSIMmiavAihAjrz3619FKvUBZ6zitddu0LFoOpVOI6Xvw0KZUI4ZU702YM4DmPVDki3fOZIWmZW1Q%2BgB4gkXudmalceisJyESml3hbWERngnUT6z7mXagM5Jq5KHH04rinM1Uh2iyzqcgFf8XpbLeivDtALQv1u7RjWl8R0tU7%2FTw%2B2FosxWflP64WLxi62HNqQJ6xP404gVoweI6YKkpWjgx%2Fm46ue%2Frx0Mxrzms0QfnTK1Zw9K%2BO1q1xDBhv%2BhBBSJqVXA%2FpMOLpo7zjS3RSd%2FckZ9mU6KBUZcoqysdARu2Uflo8Gx72LrNGqBS6QZm%2BQfNWsUIw%2BbbkJ%2F9SCGuPrJoIyBL%2BIwuJeNowY6ngHVOUIB%2FiBlqzcIAj3Sn0MSNoUbu1XAMsZoziK1vkF2RL5Mkm126rLv5qZAxKlkFxGcvEFf7wdY3rmSs8q7LHPKJRF9XBTDP%2FK2BUgMeyPLlK3sRoHniyC6mMVz8PBXfIdrLdJZCcE3ye0f79kD3bAm%2FUiau2xJ2kZVzTDAnAYBFaxTgtLdznxEXhTogFagkXlQp4L5eSLU1Qz4InSoLA%3D%3D&X-Amz-Signature=e00234b1a2ad893575d59b57dcb254847cbb4fb218a1d7e97f2ad32739400071'
p15
sS'content_type'
p16
S'application/zip'
p17
sS'type'
p18
S'Attachment'
p19
sS'id'
p20
I14977
sS'link_type'
p21
S'upload'
p22
ssS'sg_status_list'
p23
S'prod'
p24
sS'sg_detailed_release_notes'
p25
(dp26
S'name'
p27
S'v4.4.15'
p28
sS'url'
p29
S'https://support.shotgunsoftware.com/hc/en-us/articles/219040008#v4.4.15'
p30
sS'content_type'
p31
NsS'type'
p32
S'Attachment'
p33
sS'id'
p34
I14974
sS'link_type'
p35
S'web'
p36
ssS'sg_documentation'
p37
(dp38
S'name'
p39
S'Documentation'
p40
sS'url'
p41
S'https://support.shotgunsoftware.com/hc/en-us/articles/219040008'
p42
sS'content_type'
p43
NsS'type'
p44
S'Attachment'
p45
sS'id'
p46
I14976
sS'link_type'
p47
S'web'
p48
ssS'type'
p49
S'CustomNonProjectEntity09'
p50
sS'id'
p51
I507
ssS'sg_bundle_data'
p52
(dp53
S'sg_status_list'
p54
S'depl'
p55
sS'type'
p56
S'CustomNonProjectEntity13'
p57
sS'id'
p58
I3
sS'sg_system_name'
p59
S'tk-framework-shotgunutils'
p60
sS'sg_deprecation_message'
p61
Nss.