(dp1
S'sg_version_data'
p2
(dp3
S'code'
p4
S'v0.20.16'
p5
sS'description'
p6
S"Fix the logic in the resolver so that Python 2 users do not depend on  having 'SGTK_CONFIG_LOCK_VERSION' environment variable to stop auto update to the latest config."
p7
sS'tags'
p8
(lp9
sS'sg_payload'
p10
(dp11
S'name'
p12
S'sgtk_core_v0.20.16.zip'
p13
sS'url'
p14
S'https://s3-proxy.shotgunstudio.com/d18c13bf0e59a9a82f18be518a1b6b508bcbd774/ccd2adf8b830df280cfc14435cfd7be9df0c2c86/sgtk_core_v0.20.16.zip?response-content-disposition=filename%3D%22sgtk_core_v0.20.16.zip%22&x-amz-meta-user-id=42&x-amz-meta-user-type=ApiUser&X-Amz-Algorithm=AWS4-HMAC-SHA256&X-Amz-Credential=ASIAYJG6Z4JI5DQQZGV7%2F20230516%2Fus-west-2%2Fs3%2Faws4_request&X-Amz-Date=20230516T094123Z&X-Amz-SignedHeaders=host&X-Amz-Expires=900&X-Amz-Security-Token=IQoJb3JpZ2luX2VjEAIaCXVzLWVhc3QtMSJIMEYCIQCQvvcdTDzRYLen9j%2F4sBFiVXe4unNhegbhSBKSLL63RgIhAKcPVvFGGRO9Jh3zP%2BOa7h%2BlsyA4MmIPlfK39D7V32fMKpgCCCsQABoMNTY5NTUwNDMwODAxIgwYAAL%2FNGb%2BjKQrWIwq9QFvRst%2BtUz1mCjcDb6Sk0BV8NPkkINSRoYpDQWZs6FV%2FndFain8%2BU96CqS1Ld3XHnsbbI1zzzNKsuWdeXehVG1U7REUL3dm3HmTpkzx9T5OItIBhBHHoI2AJQPju5xkJFDorZDg4X6S3mQYPl5tT%2BRC16apG4hmm8flD2LHRERSoC3za01asEKmCFbfb93XjGv5TGIHf12eKv91Sfti4Tf5PQunbl%2BDu7TErWLXuCRoLoJmlbAJXcFhOI29P7s6O4k%2Fx57As%2B9IwQ2Nn6QGb1votvJpP5jFQ50zQvmiZP9%2B7GEti5OYtaP6NIyR2jHka267k9CmVDDpmI2jBjqcAQaIWQzJOur0JAv2mJZqDW%2B9Ig6ZJQASb0ZUIwMeK1dvmIPzqbjJCgx1ttm%2BWhtP7QSV%2FskppHhKByLizPpKfapq2mMoYE2wIaSISZ0hHOb6v0aXZpyK6coh6QUE6CipNKEscs1HQMIDOk68YZoR8zT35roB1j0d5EhuvRgH57AgJaQ1DS40cVjS19XjGtUxTFYuZgemzxossiCQUA%3D%3D&X-Amz-Signature=c229fb8e14d62af9aa22cb6b28e01437cafa245164c54f8a5a957027921150a7'
p15
sS'content_type'
p16
S'application/zip'
p17
sS'type'
p18
S'Attachment'
p19
sS'id'
p20
I29549
sS'link_type'
p21
S'upload'
p22
ssS'sg_status_list'
p23
S'prod'
p24
sS'sg_detailed_release_notes'
p25
(dp26
S'name'
p27
S'v0.20.16'
p28
sS'url'
p29
S'https://community.shotgridsoftware.com/t/a-new-version-of-tk-core-has-been-released/13647/12'
p30
sS'content_type'
p31
NsS'type'
p32
S'Attachment'
p33
sS'id'
p34
I29572
sS'link_type'
p35
S'web'
p36
ssS'sg_documentation'
p37
(dp38
S'name'
p39
S'Documentation'
p40
sS'url'
p41
S'https://developer.shotgridsoftware.com/d587be80/?title=Integrations+User+Guide'
p42
sS'content_type'
p43
NsS'type'
p44
S'Attachment'
p45
sS'id'
p46
I29548
sS'link_type'
p47
S'web'
p48
ssS'type'
p49
S'CustomNonProjectEntity01'
p50
sS'id'
p51
I1760
ssS'sg_bundle_data'
p52
Ns.