(dp1
S'sg_version_data'
p2
(dp3
S'code'
p4
S'v0.3.1'
p5
sS'description'
p6
S'Replacing shotgunsoftware urls with Autodesk Knowledge Network and ShotGrid Developer Documentation pages.'
p7
sS'tags'
p8
(lp9
sS'sg_payload'
p10
(dp11
S'name'
p12
S'tk-shotgun-folders_v0.3.1.zip'
p13
sS'url'
p14
S'https://s3-proxy.shotgunstudio.com/d18c13bf0e59a9a82f18be518a1b6b508bcbd774/b23c1d5392e482f9ce5fa19c10f5b4918e23fb93/tk-shotgun-folders_v0.3.1.zip?response-content-disposition=filename%3D%22tk-shotgun-folders_v0.3.1.zip%22&x-amz-meta-user-id=42&x-amz-meta-user-type=ApiUser&X-Amz-Algorithm=AWS4-HMAC-SHA256&X-Amz-Credential=ASIAYJG6Z4JITLBPZ74Z%2F20230516%2Fus-west-2%2Fs3%2Faws4_request&X-Amz-Date=20230516T095401Z&X-Amz-SignedHeaders=host&X-Amz-Expires=900&X-Amz-Security-Token=IQoJb3JpZ2luX2VjEAIaCXVzLWVhc3QtMSJIMEYCIQCMQrPJccSc7amg1EJI90UPUjpBMn3x3I9XFB%2F2B5fYtQIhAOyS7FJ%2BIbvEXgJD7Kdshsfdkrx4%2Fx3pdS%2BN82RwiZ2uKpgCCCsQABoMNTY5NTUwNDMwODAxIgx7Vm9bz0G5%2FMhPyR8q9QHIc868EiKpABGlMYQDwKo6bABTqch6OwjxnfZpNSq8HZIQ574Kr8jVyXDOVFxgWctkxJg30GbiN6zYsIUW7040jwJcp9LwR1KP33oPXOV6lP24bsrjQPjU2LsYf2kIG22Wz8NGOlRRXupOf%2F2A1Anj58Oa4PsMjTh1EJJ3FWvw0lNF3XmJtToBGh%2F6G6N4usyYzT1OGYX30a4glQ4oxTclMixi2fOVwLYGQHzvFpkOf96niOnDKUPewgmzKynEiBbMi3FuX9EYlNznNFIPkq4v7nh0yWafS8zZ%2F1UFw%2FJNIDMfo%2BWOKI%2BbRU94tj4jrxXnNzP1%2FDCql42jBjqcAfbYPYzNPEfDbj4phl76BYEwfUZvfX50Ysq%2Fj1aow73%2BP%2BNM8GBBEZfqj4kK6CgeQNSnUdZw6ZrUmbMIXV8kueY2iTfQoIpchtpcJdwVJMUJo8viKEGW32ere68YIguqCH5PBGV411JTVGENVTfxJroksvzVW0dUro30X4NyetSd948wBs512jyb0sSBmCcDlN7BL%2FWKyUE5D7gSjg%3D%3D&X-Amz-Signature=c25ebf727c99e315d86f2dd55f6cfd9de1181eb3575a280bd4180e95db9c4745'
p15
sS'content_type'
p16
S'application/zip'
p17
sS'type'
p18
S'Attachment'
p19
sS'id'
p20
I26980
sS'link_type'
p21
S'upload'
p22
ssS'sg_status_list'
p23
S'prod'
p24
sS'sg_detailed_release_notes'
p25
(dp26
S'name'
p27
S'v0.3.1'
p28
sS'url'
p29
S'https://community.shotgridsoftware.com/t/a-new-version-of-tk-shotgun-folders-has-been-released/14158/3'
p30
sS'content_type'
p31
NsS'type'
p32
S'Attachment'
p33
sS'id'
p34
I27051
sS'link_type'
p35
S'web'
p36
ssS'sg_documentation'
p37
(dp38
S'name'
p39
S'Documentation'
p40
sS'url'
p41
S'https://developer.shotgridsoftware.com/219032928'
p42
sS'content_type'
p43
NsS'type'
p44
S'Attachment'
p45
sS'id'
p46
I26979
sS'link_type'
p47
S'web'
p48
ssS'type'
p49
S'CustomNonProjectEntity05'
p50
sS'id'
p51
I4429
ssS'sg_bundle_data'
p52
(dp53
S'sg_status_list'
p54
S'depl'
p55
sS'type'
p56
S'CustomNonProjectEntity02'
p57
sS'id'
p58
I18
sS'sg_system_name'
p59
S'tk-shotgun-folders'
p60
sS'sg_deprecation_message'
p61
Nss.