(dp1
S'sg_version_data'
p2
(dp3
S'code'
p4
S'v0.11.4'
p5
sS'description'
p6
S'Official support for Maya 2023'
p7
sS'tags'
p8
(lp9
sS'sg_payload'
p10
(dp11
S'name'
p12
S'tk-maya_v0.11.4.zip'
p13
sS'url'
p14
S'https://s3-proxy.shotgunstudio.com/d18c13bf0e59a9a82f18be518a1b6b508bcbd774/ee4e3bf3a136324ca26ccd4dc248abe26d0e9238/tk-maya_v0.11.4.zip?response-content-disposition=filename%3D%22tk-maya_v0.11.4.zip%22&x-amz-meta-user-id=42&x-amz-meta-user-type=ApiUser&X-Amz-Algorithm=AWS4-HMAC-SHA256&X-Amz-Credential=ASIAYJG6Z4JIWC4LCAG6%2F20230516%2Fus-west-2%2Fs3%2Faws4_request&X-Amz-Date=20230516T095316Z&X-Amz-SignedHeaders=host&X-Amz-Expires=900&X-Amz-Security-Token=IQoJb3JpZ2luX2VjEAIaCXVzLWVhc3QtMSJHMEUCIG%2FC%2B3JD5Re62CbUMBHChDLr9llbU963D17lKDJ5GS13AiEA5QCd7qHhf0G8LlQabW6fz4RVI%2Fd5XD9bJZTd1XIHA2IqmAIIKxAAGgw1Njk1NTA0MzA4MDEiDAv9%2BZpKFFZXJFJtkir1AdIgFrcbW9MUnFFz54SfyTgI93h%2Fb2sePGjGqK3%2BgcxF0EdKcMjDpiUO8WKd0VDXVC2hp7iIVRoo0O%2BqqNXXG8KXrAajcG65a7NXYtVaKdS64QibnL9cDLbayxpTlXjyLbEpp0JVfpfN6bE5EH5bzlRGXO290MIfsxnBly4lJeu92s7uRYEN9OcaeeF3D1Ouwy7PMqmKGpO9qKgzJ2JFKJOPAsPlCKU3AKG4g6WiDy%2BxAihnTgTTvC4%2FFzjAaG8WV5%2BK2pPLEOA%2BJlv%2Fyn0gV8TIhD8fo4%2F6l9PZjj%2FD62a6HuVPPQFaaxKOCKuTMMTVXii%2Bht3vMKGYjaMGOp0BF4EEK3oGtCughGEpB6LYtUx3xNTCuKh3Ym2fgW3YimWdCUby3TTDYjuvaHYeYM789c3Vj5Zzmw6otb0jyU4WqCq5UE%2FU39os4a4vc%2Boqm1onOCBUtpmKdpxPds57CNMkikU1v2R339ZZcX3vWzdmBsVj8gZ8z7gdNBRSdld7446bDrfism7nAJRBLuEhm%2B5jizqqqKHYkCKV1Jhnuw%3D%3D&X-Amz-Signature=03c6b63721a45c45e45a5a360d19371c284e5ce3634571352980b13831f225eb'
p15
sS'content_type'
p16
S'application/zip'
p17
sS'type'
p18
S'Attachment'
p19
sS'id'
p20
I27926
sS'link_type'
p21
S'upload'
p22
ssS'sg_status_list'
p23
S'prod'
p24
sS'sg_detailed_release_notes'
p25
(dp26
S'name'
p27
S'v0.11.4'
p28
sS'url'
p29
S'https://community.shotgridsoftware.com/t/a-new-version-of-tk-maya-has-been-released/14132/5'
p30
sS'content_type'
p31
NsS'type'
p32
S'Attachment'
p33
sS'id'
p34
I27928
sS'link_type'
p35
S'web'
p36
ssS'sg_documentation'
p37
(dp38
S'name'
p39
S'Documentation'
p40
sS'url'
p41
S'https://developer.shotgridsoftware.com/219032818'
p42
sS'content_type'
p43
NsS'type'
p44
S'Attachment'
p45
sS'id'
p46
I27925
sS'link_type'
p47
S'web'
p48
ssS'type'
p49
S'CustomNonProjectEntity04'
p50
sS'id'
p51
I3084
ssS'sg_bundle_data'
p52
(dp53
S'sg_status_list'
p54
S'depl'
p55
sS'type'
p56
S'CustomNonProjectEntity03'
p57
sS'id'
p58
I4
sS'sg_system_name'
p59
S'tk-maya'
p60
sS'sg_deprecation_message'
p61
Nss.