(dp1
S'sg_version_data'
p2
(dp3
S'code'
p4
S'v1.2.1'
p5
sS'description'
p6
S'Replacing shotgunsoftware urls with Autodesk Knowledge Network and ShotGrid Developer Documentation pages.'
p7
sS'tags'
p8
(lp9
sS'sg_payload'
p10
(dp11
S'name'
p12
S'tk-multi-devutils_v1.2.1.zip'
p13
sS'url'
p14
S'https://s3-proxy.shotgunstudio.com/d18c13bf0e59a9a82f18be518a1b6b508bcbd774/cb6a2bc83274b7d49635d9fe708a4fab11b44c08/tk-multi-devutils_v1.2.1.zip?response-content-disposition=filename%3D%22tk-multi-devutils_v1.2.1.zip%22&x-amz-meta-user-id=42&x-amz-meta-user-type=ApiUser&X-Amz-Algorithm=AWS4-HMAC-SHA256&X-Amz-Credential=ASIAYJG6Z4JI4Z7WRWGK%2F20230516%2Fus-west-2%2Fs3%2Faws4_request&X-Amz-Date=20230516T095507Z&X-Amz-SignedHeaders=host&X-Amz-Expires=900&X-Amz-Security-Token=IQoJb3JpZ2luX2VjEAIaCXVzLWVhc3QtMSJIMEYCIQD%2ByXSJ8TEg7EnZBVfD9mVlhUoVaMw5xoPNtrREwJ3YYgIhAMBwNjB3qwSzlWuexYR5MrzYV%2FMwii8tXgiG21JZAZ5OKpgCCCsQABoMNTY5NTUwNDMwODAxIgzX%2BJIwRPhBGJIhGrUq9QH1c3dmPnLWxG5eWd19%2F7IQKqHKGdTaZTbv7BdYZ7gtOkQHWCeR63FD%2Bj5%2FbyNfGxJGNSv0YU7A4ExXdYHvtmENNpqylEnUcPPODxNzo0OOzzLoEs7Y4qbMOkFxC0dB0hyaflbPcnW%2BvKE%2F5AEFhjkjrtodU8J1Uwr5GBtouHYlOfNs3Mt2uNp5OpLBvaQxeP1AumVNfKO8HFj1pRC9sEj1DSF1wL2JLZwvP15%2FBINkJQIkOm8T9OwJeNgNtZ1d5S110ZJRjd5eBOHWdzvlN1ewGqyr8Y5taaD55tLT9J%2FKNO%2FaOChlUoCAep%2BzmbhYoBr0nkzTrTDIpI2jBjqcASkmhrdyuZ6lfuDocXw1DyQMa%2FQO77jtmjQS41xX3mXt1TtMMbeTlXj2jCOfJ277LpH139EK%2FjxPyup1nPe%2BiuwYltbNPDSUp8pKKdqZePyiItgDEUQ6zZz2nNmnyOM49wTEmB1c3UW10A9cqd7%2BIX%2Bho9aSNN8TZ0RK5Q4%2BqseLo8T6%2BngKZ3vP04RcwL15dS5bcJdqYBmEy6SRmQ%3D%3D&X-Amz-Signature=c04d464ed5928d26415271483d528fc570ce91e2bacd6876793f1f416b9f744c'
p15
sS'content_type'
p16
S'application/zip'
p17
sS'type'
p18
S'Attachment'
p19
sS'id'
p20
I26921
sS'link_type'
p21
S'upload'
p22
ssS'sg_status_list'
p23
S'prod'
p24
sS'sg_detailed_release_notes'
p25
(dp26
S'name'
p27
S'v1.2.1'
p28
sS'url'
p29
S'https://community.shotgridsoftware.com/t/a-new-version-of-tk-multi-devutils-has-been-released/14136/3'
p30
sS'content_type'
p31
NsS'type'
p32
S'Attachment'
p33
sS'id'
p34
I27034
sS'link_type'
p35
S'web'
p36
ssS'sg_documentation'
p37
NsS'type'
p38
S'CustomNonProjectEntity05'
p39
sS'id'
p40
I4413
ssS'sg_bundle_data'
p41
(dp42
S'sg_status_list'
p43
S'hidden'
p44
sS'type'
p45
S'CustomNonProjectEntity02'
p46
sS'id'
p47
I235
sS'sg_system_name'
p48
S'tk-multi-devutils'
p49
sS'sg_deprecation_message'
p50
Nss.