(dp1
S'sg_version_data'
p2
(dp3
S'code'
p4
S'v0.6.4'
p5
sS'description'
p6
S'ShotGrid branding updates.'
p7
sS'tags'
p8
(lp9
sS'sg_payload'
p10
(dp11
S'name'
p12
S'tk-motionbuilder_v0.6.4.zip'
p13
sS'url'
p14
S'https://s3-proxy.shotgunstudio.com/d18c13bf0e59a9a82f18be518a1b6b508bcbd774/540d078dc0181e03b9848b343a121891899f019e/tk-motionbuilder_v0.6.4.zip?response-content-disposition=filename%3D%22tk-motionbuilder_v0.6.4.zip%22&x-amz-meta-user-id=42&x-amz-meta-user-type=ApiUser&X-Amz-Algorithm=AWS4-HMAC-SHA256&X-Amz-Credential=ASIAYJG6Z4JIWINIJQVC%2F20230516%2Fus-west-2%2Fs3%2Faws4_request&X-Amz-Date=20230516T095341Z&X-Amz-SignedHeaders=host&X-Amz-Expires=900&X-Amz-Security-Token=IQoJb3JpZ2luX2VjEAIaCXVzLWVhc3QtMSJIMEYCIQD%2ByqNKrZx6P2l2DEnjVN3KjEPv%2BT6kM4%2BjSrj6sbLS1wIhAObXSd5ydmwPxK%2F1rnqqjFjCkLKEtyuJ9HwPNC%2BnilmWKpgCCCsQABoMNTY5NTUwNDMwODAxIgwRfPDP4Nhf1cq4J%2FMq9QFiGRewmXvQ%2FsB7v1BKhqOjhYCXnbZ2R5E4NvvRBGIqCg6nMpAfGM3hhjBxvfrtocCS9e7tgR7lGzgqNQU2Ey5zAEZ%2FWKcWP01auHaKcSaz3HB3Vsxz0EK2S%2BxjIN5axHIiM7mlO1D%2FLQ5iEJLsrlkNAjF7%2BKX%2FHK2tXqtUhUrMpIZiUrKauWQdQ8uKKUIaDcK2G%2BdDOkYAo02Rz7S7HskWbjmcc7iHhN%2FkFQ2kHxMEoXz2X1AV%2BW%2FR%2B2BXyMZuul02j0JP5VuG8G8AHC7HNf%2B5PuFkH9I7iMtactulXgyNu5G2UG8LH7FQTpLjEfNxiaIbPvOCvTDtoI2jBjqcAXdHlciNn7yVs%2F7MNTUWk%2FicRfPs5YBARmNZtxq%2Ftsfxw9YorAwFUbo2OBpRHfFsWQk3VzShJjcXkox6dleX7jAzaNaP4wX6UVQwfDsCI2hfEgnCkwfjr1SEEFqzCg9TPjyM3Xx8UGBXEvaQx1bPpJoFqTldHaWdovbvj6qZDZXDlxXHXpQmjfTSnNqjpRrCxI7mF0lnEzwZjD6vZQ%3D%3D&X-Amz-Signature=0f92ae5ac8f6a9ee6957d51aa5378026934af1141594d04c73740169fc71029d'
p15
sS'content_type'
p16
S'application/zip'
p17
sS'type'
p18
S'Attachment'
p19
sS'id'
p20
I27757
sS'link_type'
p21
S'upload'
p22
ssS'sg_status_list'
p23
S'prod'
p24
sS'sg_detailed_release_notes'
p25
(dp26
S'name'
p27
S'v0.6.4'
p28
sS'url'
p29
S'https://community.shotgridsoftware.com/t/a-new-version-of-tk-motionbuilder-has-been-released/14133/4'
p30
sS'content_type'
p31
NsS'type'
p32
S'Attachment'
p33
sS'id'
p34
I27871
sS'link_type'
p35
S'web'
p36
ssS'sg_documentation'
p37
(dp38
S'name'
p39
S'Documentation'
p40
sS'url'
p41
S'https://developer.shotgridsoftware.com/219032878'
p42
sS'content_type'
p43
NsS'type'
p44
S'Attachment'
p45
sS'id'
p46
I27756
sS'link_type'
p47
S'web'
p48
ssS'type'
p49
S'CustomNonProjectEntity04'
p50
sS'id'
p51
I3055
ssS'sg_bundle_data'
p52
(dp53
S'sg_status_list'
p54
S'depl'
p55
sS'type'
p56
S'CustomNonProjectEntity03'
p57
sS'id'
p58
I9
sS'sg_system_name'
p59
S'tk-motionbuilder'
p60
sS'sg_deprecation_message'
p61
Nss.