(dp1
S'sg_version_data'
p2
(dp3
S'code'
p4
S'v2.6.7'
p5
sS'description'
p6
S'Fix incorrect quit shortcut on Windows.'
p7
sS'tags'
p8
(lp9
sS'sg_payload'
p10
(dp11
S'name'
p12
S'tk-desktop_v2.6.7.zip'
p13
sS'url'
p14
S'https://s3-proxy.shotgunstudio.com/d18c13bf0e59a9a82f18be518a1b6b508bcbd774/1f6aa8c72e1721faad37579a0eebdc89069effe7/tk-desktop_v2.6.7.zip?response-content-disposition=filename%3D%22tk-desktop_v2.6.7.zip%22&x-amz-meta-user-id=42&x-amz-meta-user-type=ApiUser&X-Amz-Algorithm=AWS4-HMAC-SHA256&X-Amz-Credential=ASIAYJG6Z4JI7XMNDL6Y%2F20230516%2Fus-west-2%2Fs3%2Faws4_request&X-Amz-Date=20230516T095114Z&X-Amz-SignedHeaders=host&X-Amz-Expires=900&X-Amz-Security-Token=IQoJb3JpZ2luX2VjEAIaCXVzLWVhc3QtMSJGMEQCIEwLf%2FPNRqae0jXmpo6x8HyL8qTzgJnfQD1J0Om%2FlG3%2BAiArGLFs5snOxM%2BG2gNabpxKtUn3lKIQ0Jiq%2BWFbLCZCmCqYAggrEAAaDDU2OTU1MDQzMDgwMSIMmiavAihAjrz3619FKvUBZ6zitddu0LFoOpVOI6Xvw0KZUI4ZU702YM4DmPVDki3fOZIWmZW1Q%2BgB4gkXudmalceisJyESml3hbWERngnUT6z7mXagM5Jq5KHH04rinM1Uh2iyzqcgFf8XpbLeivDtALQv1u7RjWl8R0tU7%2FTw%2B2FosxWflP64WLxi62HNqQJ6xP404gVoweI6YKkpWjgx%2Fm46ue%2Frx0Mxrzms0QfnTK1Zw9K%2BO1q1xDBhv%2BhBBSJqVXA%2FpMOLpo7zjS3RSd%2FckZ9mU6KBUZcoqysdARu2Uflo8Gx72LrNGqBS6QZm%2BQfNWsUIw%2BbbkJ%2F9SCGuPrJoIyBL%2BIwuJeNowY6ngHVOUIB%2FiBlqzcIAj3Sn0MSNoUbu1XAMsZoziK1vkF2RL5Mkm126rLv5qZAxKlkFxGcvEFf7wdY3rmSs8q7LHPKJRF9XBTDP%2FK2BUgMeyPLlK3sRoHniyC6mMVz8PBXfIdrLdJZCcE3ye0f79kD3bAm%2FUiau2xJ2kZVzTDAnAYBFaxTgtLdznxEXhTogFagkXlQp4L5eSLU1Qz4InSoLA%3D%3D&X-Amz-Signature=d60e71d832d9ffe50e8aebb51b0ba64cb7318892e95e7081377e39c86f92014c'
p15
sS'content_type'
p16
S'application/zip'
p17
sS'type'
p18
S'Attachment'
p19
sS'id'
p20
I29506
sS'link_type'
p21
S'upload'
p22
ssS'sg_status_list'
p23
S'prod'
p24
sS'sg_detailed_release_notes'
p25
(dp26
S'name'
p27
S'v2.6.7'
p28
sS'url'
p29
S'https://community.shotgridsoftware.com/t/a-new-version-of-tk-desktop-has-been-released/14117/9'
p30
sS'content_type'
p31
NsS'type'
p32
S'Attachment'
p33
sS'id'
p34
I29507
sS'link_type'
p35
S'web'
p36
ssS'sg_documentation'
p37
(dp38
S'name'
p39
S'Documentation'
p40
sS'url'
p41
S'https://developer.shotgridsoftware.com/219039818'
p42
sS'content_type'
p43
NsS'type'
p44
S'Attachment'
p45
sS'id'
p46
I29505
sS'link_type'
p47
S'web'
p48
ssS'type'
p49
S'CustomNonProjectEntity04'
p50
sS'id'
p51
I3644
ssS'sg_bundle_data'
p52
(dp53
S'sg_status_list'
p54
S'hidden'
p55
sS'type'
p56
S'CustomNonProjectEntity03'
p57
sS'id'
p58
I49
sS'sg_system_name'
p59
S'tk-desktop'
p60
sS'sg_deprecation_message'
p61
Nss.