(dp1
S'sg_version_data'
p2
(dp3
S'code'
p4
S'v0.1.0'
p5
sS'description'
p6
S'* Initial Release'
p7
sS'tags'
p8
(lp9
sS'sg_payload'
p10
(dp11
S'name'
p12
S'tk-multi-bg-publish_v0.1.0.zip'
p13
sS'url'
p14
S'https://s3-proxy.shotgunstudio.com/d18c13bf0e59a9a82f18be518a1b6b508bcbd774/8a829b06b484c2c589c692bf75651870c3932c4f/tk-multi-bg-publish_v0.1.0.zip?response-content-disposition=filename%3D%22tk-multi-bg-publish_v0.1.0.zip%22&x-amz-meta-user-id=42&x-amz-meta-user-type=ApiUser&X-Amz-Algorithm=AWS4-HMAC-SHA256&X-Amz-Credential=ASIAYJG6Z4JIYVLGHAMU%2F20230516%2Fus-west-2%2Fs3%2Faws4_request&X-Amz-Date=20230516T095531Z&X-Amz-SignedHeaders=host&X-Amz-Expires=900&X-Amz-Security-Token=IQoJb3JpZ2luX2VjEAIaCXVzLWVhc3QtMSJIMEYCIQD1Xr40VW1b7XpGoXt3saBbzqNxgU19oddjjnzzKKucTgIhALYMDNLOIz1bxHQQmAlktkUtUDSUWXYWTbpiigstBChZKpgCCCsQABoMNTY5NTUwNDMwODAxIgworBtzzIjCjWjRC8Qq9QER3vkBO8wMPSFxy7ujWt%2BxxMNfpWNfYLDgGW0GFENz3cpGKwTdnwpV9bnuDI3AkH6ffBZzihDAEq8DrFx2f02avxGnlXT4d14hyXo1X0jwQlIeNSAds8yoWC%2Br%2FWCrTzak2%2BWJmt3zrhG8IDcG82rM3cjd669wVrIXUc14g7hyw4UFVEbrb3W%2Fb8P78lC3ZI8SZmEKKE0eIK2hjRn2t1WyXFK8%2FEh1Krf4FNx5l7iRbOUYk02zuNlHr%2FShL0gj6vXQICX5ddWUARbQ33PycaMuDtjjokS%2BfwZ8nrrmUFNzB0TiN3suD0e8Hgj%2BuQ6AMramsObzeTCSl42jBjqcAepaTdI88Alcqswc%2FO2oTXN9q%2FB1T4HdpjL7MSsAQ8JaQ4qFGg7IRqP%2Fp%2Frv0Fz3r08y0H1W9X3wjuX2RZ2aF1UHf4mr5TyICX55tKnaaX1JanjzmxnJxild8MYinA5GXLLTgQoYZXg%2FaX2pbu3gptDDL1yZXVfmnxjczn1GHb2dqHpUZWYqbNdG9ndDOPd3EngkUsA4ShCz%2BQjulg%3D%3D&X-Amz-Signature=ac33a106417bcb3ae54d8531211703940108d353a823e7719b703e109ca129b1'
p15
sS'content_type'
p16
S'application/zip'
p17
sS'type'
p18
S'Attachment'
p19
sS'id'
p20
I28548
sS'link_type'
p21
S'upload'
p22
ssS'sg_status_list'
p23
S'prod'
p24
sS'sg_detailed_release_notes'
p25
NsS'sg_documentation'
p26
NsS'type'
p27
S'CustomNonProjectEntity05'
p28
sS'id'
p29
I4839
ssS'sg_bundle_data'
p30
(dp31
S'sg_status_list'
p32
S'depl'
p33
sS'type'
p34
S'CustomNonProjectEntity02'
p35
sS'id'
p36
I368
sS'sg_system_name'
p37
S'tk-multi-bg-publish'
p38
sS'sg_deprecation_message'
p39
Nss.