(dp1
S'sg_version_data'
p2
(dp3
S'code'
p4
S'v5.8.5'
p5
sS'description'
p6
S'ShotGrid branding updates.'
p7
sS'tags'
p8
(lp9
sS'sg_payload'
p10
(dp11
S'name'
p12
S'tk-framework-shotgunutils_v5.8.5.zip'
p13
sS'url'
p14
S'https://s3-proxy.shotgunstudio.com/d18c13bf0e59a9a82f18be518a1b6b508bcbd774/beb57743473fc36a6647037c6571d7f4af0ad371/tk-framework-shotgunutils_v5.8.5.zip?response-content-disposition=filename%3D%22tk-framework-shotgunutils_v5.8.5.zip%22&x-amz-meta-user-id=42&x-amz-meta-user-type=ApiUser&X-Amz-Algorithm=AWS4-HMAC-SHA256&X-Amz-Credential=ASIAYJG6Z4JIRGFNOFWD%2F20230516%2Fus-west-2%2Fs3%2Faws4_request&X-Amz-Date=20230516T095152Z&X-Amz-SignedHeaders=host&X-Amz-Expires=900&X-Amz-Security-Token=IQoJb3JpZ2luX2VjEAEaCXVzLWVhc3QtMSJHMEUCIQCEtd1PLqwvjU%2F1esuXfyBX6FCeKeippZzGmkDz50o0cAIgVDKT%2B5hW6AGswKYxd77lOzcJtag3SvGx8%2Fopl7J7ueEqmAIIKhAAGgw1Njk1NTA0MzA4MDEiDHmKIrho7o612ABHfSr1AS4pxjgt71Rkrm2W8ZPiaJc7yXdfUe255503B%2BBEWhCzmAX89mGBjlniXyiCnLhu01KwTGfMOFIxWmh%2FclDcj3NXxXUxYVULt1aWj9BYzqt4SOTUoAPy9oMt%2B4jD9HhLgGacUGWDwDNtQDZDT2sasoYrbIHlOnLPeJJM2J2t2p%2F6%2FGssZuaKFdqO31fSSpTuovoCq5TAvqzroFXt7crw3yV%2FQhb4oigxOPC57JrPxj%2BK9Mngyevvl%2F9Y6w6glsGhvyOrtCW9b8Qwnub5Vx7V3xTwgu1OiSLMEaMww%2BHQc%2BuY1DYVZvpeb8jSH%2BDe7Qsa0p4YvJI2MI6NjaMGOp0B0eN%2F%2FV2Dq8VzmrMfprUcpFR5vzz5uLxl%2FVKZ%2FBouuqmiIdncsILl00gS2kvVtIkQOGVeBMaKGO2ETJMXsXcxZ%2FnmzlFe4boSHDms4eyPnAMmgLN%2BuaOYR6uKlM2f%2BG1qBDN9onOAaT1oSVjP4V9DXEx4NTAmSDEFDgR1M1GF9rIrCRxMmmHlPkaddUEFEv3VUZ%2BK2do6Q4XNXJ9rqA%3D%3D&X-Amz-Signature=3fbd0252e050a534bdaa3fb1802663cdb2854097678120c20a1749521f7e6b00'
p15
sS'content_type'
p16
S'application/zip'
p17
sS'type'
p18
S'Attachment'
p19
sS'id'
p20
I27768
sS'link_type'
p21
S'upload'
p22
ssS'sg_status_list'
p23
S'prod'
p24
sS'sg_detailed_release_notes'
p25
(dp26
S'name'
p27
S'v5.8.5'
p28
sS'url'
p29
S'https://community.shotgridsoftware.com/t/a-new-version-of-tk-framework-shotgunutils-has-been-released/13499/7'
p30
sS'content_type'
p31
NsS'type'
p32
S'Attachment'
p33
sS'id'
p34
I27873
sS'link_type'
p35
S'web'
p36
ssS'sg_documentation'
p37
(dp38
S'name'
p39
S'Documentation'
p40
sS'url'
p41
S'https://developer.shotgridsoftware.com/219040008'
p42
sS'content_type'
p43
NsS'type'
p44
S'Attachment'
p45
sS'id'
p46
I27767
sS'link_type'
p47
S'web'
p48
ssS'type'
p49
S'CustomNonProjectEntity09'
p50
sS'id'
p51
I2296
ssS'sg_bundle_data'
p52
(dp53
S'sg_status_list'
p54
S'depl'
p55
sS'type'
p56
S'CustomNonProjectEntity13'
p57
sS'id'
p58
I3
sS'sg_system_name'
p59
S'tk-framework-shotgunutils'
p60
sS'sg_deprecation_message'
p61
Nss.